target datalayout = "e-m:e-p270:32:32-p271:32:32-p272:64:64-i64:64-i128:128-f80:128-n8:16:32:64-S128"
target triple = "x86_64-pc-linux-gnu"

%struct.ScanKeyData = type { i32, i16, i16, i32, i32, %struct.FmgrInfo, i64 }
%struct.FmgrInfo = type { ptr, i32, i16, i8, i8, i8, ptr, ptr, ptr }
%struct.RelationData = type { %struct.RelFileLocator, ptr, i32, i32, i8, i8, i8, i8, i8, i32, i32, i32, i32, ptr, ptr, i32, %struct.LockInfoData, ptr, ptr, ptr, ptr, ptr, i8, ptr, ptr, ptr, ptr, ptr, ptr, i32, ptr, i8, ptr, ptr, i32, i8, i32, ptr, i8, ptr, ptr, ptr, ptr, ptr, ptr, ptr, i32, ptr, ptr, ptr, ptr, ptr, ptr, ptr, ptr, ptr, ptr, ptr, ptr, ptr, ptr, ptr, ptr, ptr, ptr, ptr, i32, i8, ptr }
%struct.RelFileLocator = type { i32, i32, i32 }
%struct.LockInfoData = type { %struct.LockRelId }
%struct.LockRelId = type { i32, i32 }

; Function Attrs: inlinehint nounwind uwtable
define internal ptr @DatumGetPointer(i64 noundef %0) #3 {
  %2 = alloca i64, align 8
  store i64 %0, ptr %2, align 8
  %3 = load i64, ptr %2, align 8
  %4 = inttoptr i64 %3 to ptr
  ret ptr %4
}

; Function Attrs: inlinehint nounwind uwtable
define internal i64 @ObjectIdGetDatum(i32 noundef %0) #3 {
  %2 = alloca i32, align 4
  store i32 %0, ptr %2, align 4
  %3 = load i32, ptr %2, align 4
  %4 = zext i32 %3 to i64
  ret i64 %4
}

; Function Attrs: nounwind uwtable
define dso_local void @ApplySetting(ptr noundef %0, i32 noundef %1, i32 noundef %2, ptr noundef %3, i32 noundef %4) #0 {
  %6 = alloca ptr, align 8
  %7 = alloca i32, align 4
  %8 = alloca i32, align 4
  %9 = alloca ptr, align 8
  %10 = alloca i32, align 4
  %11 = alloca ptr, align 8
  %12 = alloca [2 x %struct.ScanKeyData], align 16
  %13 = alloca ptr, align 8
  %14 = alloca i8, align 1
  %15 = alloca i64, align 8
  %16 = alloca ptr, align 8
  store ptr %0, ptr %6, align 8
  store i32 %1, ptr %7, align 4
  store i32 %2, ptr %8, align 4
  store ptr %3, ptr %9, align 8
  store i32 %4, ptr %10, align 4
  call void @llvm.lifetime.start.p0(i64 8, ptr %11) #6
  call void @llvm.lifetime.start.p0(i64 144, ptr %12) #6
  call void @llvm.lifetime.start.p0(i64 8, ptr %13) #6
  %17 = getelementptr inbounds [2 x %struct.ScanKeyData], ptr %12, i64 0, i64 0
  %18 = load i32, ptr %7, align 4
  %19 = call i64 @ObjectIdGetDatum(i32 noundef %18)
  call void @ScanKeyInit(ptr noundef %17, i16 noundef signext 1, i16 noundef zeroext 3, i32 noundef 184, i64 noundef %19)
  %20 = getelementptr inbounds [2 x %struct.ScanKeyData], ptr %12, i64 0, i64 1
  %21 = load i32, ptr %8, align 4
  %22 = call i64 @ObjectIdGetDatum(i32 noundef %21)
  call void @ScanKeyInit(ptr noundef %20, i16 noundef signext 2, i16 noundef zeroext 3, i32 noundef 184, i64 noundef %22)
  %23 = load ptr, ptr %9, align 8
  %24 = load ptr, ptr %6, align 8
  %25 = getelementptr inbounds [2 x %struct.ScanKeyData], ptr %12, i64 0, i64 0
  %26 = call ptr @systable_beginscan(ptr noundef %23, i32 noundef 2965, i1 noundef zeroext true, ptr noundef %24, i32 noundef 2, ptr noundef %25)
  store ptr %26, ptr %11, align 8
  br label %27

27:                                               ; preds = %45, %5
  %28 = load ptr, ptr %11, align 8
  %29 = call ptr @systable_getnext(ptr noundef %28)
  store ptr %29, ptr %13, align 8
  %30 = icmp ne ptr %29, null
  br i1 %30, label %31, label %46

31:                                               ; preds = %27
  call void @llvm.lifetime.start.p0(i64 1, ptr %14) #6
  call void @llvm.lifetime.start.p0(i64 8, ptr %15) #6
  %32 = load ptr, ptr %13, align 8
  %33 = load ptr, ptr %9, align 8
  %34 = getelementptr inbounds nuw %struct.RelationData, ptr %33, i32 0, i32 14
  %35 = load ptr, ptr %34, align 8
  %36 = call i64 @heap_getattr(ptr noundef %32, i32 noundef 3, ptr noundef %35, ptr noundef %14)
  store i64 %36, ptr %15, align 8
  %37 = load i8, ptr %14, align 1, !range !4, !noundef !5
  %38 = trunc i8 %37 to i1
  br i1 %38, label %45, label %39

39:                                               ; preds = %31
  call void @llvm.lifetime.start.p0(i64 8, ptr %16) #6
  %40 = load i64, ptr %15, align 8
  %41 = call ptr @DatumGetPointer(i64 noundef %40)
  %42 = call ptr @pg_detoast_datum(ptr noundef %41)
  store ptr %42, ptr %16, align 8
  %43 = load ptr, ptr %16, align 8
  %44 = load i32, ptr %10, align 4
  call void @ProcessGUCArray(ptr noundef %43, i32 noundef 5, i32 noundef %44, i32 noundef 0)
  call void @llvm.lifetime.end.p0(i64 8, ptr %16) #6
  br label %45

45:                                               ; preds = %39, %31
  call void @llvm.lifetime.end.p0(i64 8, ptr %15) #6
  call void @llvm.lifetime.end.p0(i64 1, ptr %14) #6
  br label %27, !llvm.loop !8

46:                                               ; preds = %27
  %47 = load ptr, ptr %11, align 8
  call void @systable_endscan(ptr noundef %47)
  call void @llvm.lifetime.end.p0(i64 8, ptr %13) #6
  call void @llvm.lifetime.end.p0(i64 144, ptr %12) #6
  call void @llvm.lifetime.end.p0(i64 8, ptr %11) #6
  ret void
}