; Function Attrs: nounwind uwtable
define dso_local void @ApplySetting(ptr noundef %0, i32 noundef %1, i32 noundef %2, ptr noundef %3, i32 noundef %4) local_unnamed_addr #0 {
  %6 = alloca [2 x %struct.ScanKeyData], align 16
  %7 = alloca i8, align 1
  call void @llvm.lifetime.start.p0(i64 144, ptr nonnull %6) #7
  %8 = zext i32 %1 to i64
  call void @ScanKeyInit(ptr noundef nonnull %6, i16 noundef signext 1, i16 noundef zeroext 3, i32 noundef 184, i64 noundef %8) #7
  %9 = getelementptr inbounds nuw i8, ptr %6, i64 72
  %10 = zext i32 %2 to i64
  call void @ScanKeyInit(ptr noundef nonnull %9, i16 noundef signext 2, i16 noundef zeroext 3, i32 noundef 184, i64 noundef %10) #7
  %11 = call ptr @systable_beginscan(ptr noundef %3, i32 noundef 2965, i1 noundef zeroext true, ptr noundef %0, i32 noundef 2, ptr noundef nonnull %6) #7
  %12 = call ptr @systable_getnext(ptr noundef %11) #7
  %.not10 = icmp eq ptr %12, null
  br i1 %.not10, label %._crit_edge, label %.lr.ph

.lr.ph:                                           ; preds = %5
  %13 = getelementptr inbounds nuw i8, ptr %3, i64 64
  br label %14

14:                                               ; preds = %.lr.ph, %23
  %15 = phi ptr [ %12, %.lr.ph ], [ %24, %23 ]
  call void @llvm.lifetime.start.p0(i64 1, ptr nonnull %7) #7
  %16 = load ptr, ptr %13, align 8
  %17 = call fastcc i64 @heap_getattr(ptr noundef %15, ptr noundef %16, ptr noundef %7)
  %18 = load i8, ptr %7, align 1, !range !4, !noundef !5
  %19 = trunc nuw i8 %18 to i1
  br i1 %19, label %23, label %20

20:                                               ; preds = %14
  %21 = inttoptr i64 %17 to ptr
  %22 = call ptr @pg_detoast_datum(ptr noundef %21) #7
  call void @ProcessGUCArray(ptr noundef %22, i32 noundef 5, i32 noundef %4, i32 noundef 0) #7
  br label %23

23:                                               ; preds = %20, %14
  call void @llvm.lifetime.end.p0(i64 1, ptr nonnull %7) #7
  %24 = call ptr @systable_getnext(ptr noundef %11) #7
  %.not = icmp eq ptr %24, null
  br i1 %.not, label %._crit_edge, label %14, !llvm.loop !8

._crit_edge:                                      ; preds = %23, %5
  call void @systable_endscan(ptr noundef %11) #7
  call void @llvm.lifetime.end.p0(i64 144, ptr nonnull %6) #7
  ret void
}